; Function Attrs: mustprogress nounwind uwtable
define dso_local noundef nonnull align 8 dereferenceable(96) ptr @_ZN4node6crypto12ScryptConfigaSEOS1_(ptr noundef nonnull returned align 8 dereferenceable(96) %this, ptr noundef nonnull align 8 dereferenceable(96) %other) local_unnamed_addr #3 align 2 {
entry:
  %cmp = icmp eq ptr %other, %this
  br i1 %cmp, label %return, label %if.end

if.end:                                           ; preds = %entry
  %salt.i = getelementptr inbounds i8, ptr %this, i64 40
  tail call void @_ZN4node6crypto10ByteSourceD1Ev(ptr noundef nonnull align 8 dereferenceable(24) %salt.i) #14
  %pass.i = getelementptr inbounds i8, ptr %this, i64 16
  tail call void @_ZN4node6crypto10ByteSourceD1Ev(ptr noundef nonnull align 8 dereferenceable(24) %pass.i) #14
  store ptr getelementptr inbounds ({ [10 x ptr] }, ptr @_ZTVN4node6crypto12ScryptConfigE, i64 0, i32 0, i64 2), ptr %this, align 8
  %mode.i = getelementptr inbounds i8, ptr %this, i64 8
  %mode2.i = getelementptr inbounds i8, ptr %other, i64 8
  %0 = load i32, ptr %mode2.i, align 8
  store i32 %0, ptr %mode.i, align 8
  %pass3.i = getelementptr inbounds i8, ptr %other, i64 16
  tail call void @_ZN4node6crypto10ByteSourceC1EOS1_(ptr noundef nonnull align 8 dereferenceable(24) %pass.i, ptr noundef nonnull align 8 dereferenceable(24) %pass3.i) #14
  %salt4.i = getelementptr inbounds i8, ptr %other, i64 40
  tail call void @_ZN4node6crypto10ByteSourceC1EOS1_(ptr noundef nonnull align 8 dereferenceable(24) %salt.i, ptr noundef nonnull align 8 dereferenceable(24) %salt4.i) #14
  %N.i = getelementptr inbounds i8, ptr %this, i64 64
  %N5.i = getelementptr inbounds i8, ptr %other, i64 64
  %1 = load i32, ptr %N5.i, align 8
  store i32 %1, ptr %N.i, align 8
  %r.i = getelementptr inbounds i8, ptr %this, i64 68
  %r6.i = getelementptr inbounds i8, ptr %other, i64 68
  %2 = load i32, ptr %r6.i, align 4
  store i32 %2, ptr %r.i, align 4
  %p.i = getelementptr inbounds i8, ptr %this, i64 72
  %p7.i = getelementptr inbounds i8, ptr %other, i64 72
  %3 = load i32, ptr %p7.i, align 8
  store i32 %3, ptr %p.i, align 8
  %maxmem.i = getelementptr inbounds i8, ptr %this, i64 80
  %maxmem8.i = getelementptr inbounds i8, ptr %other, i64 80
  %4 = load i64, ptr %maxmem8.i, align 8
  store i64 %4, ptr %maxmem.i, align 8
  %length.i = getelementptr inbounds i8, ptr %this, i64 88
  %length9.i = getelementptr inbounds i8, ptr %other, i64 88
  %5 = load i32, ptr %length9.i, align 8
  store i32 %5, ptr %length.i, align 8
  br label %return

return:                                           ; preds = %entry, %if.end
  ret ptr %this
}